; Function Attrs: nounwind uwtable
define ptr @l_Lake_ELog_orElse___rarg(ptr noundef %0, ptr noundef %1, ptr noundef %2, ptr noundef %3, ptr noundef %4) #1 {
  tail call void @lean_inc_heartbeat() #9
  %6 = tail call noalias ptr @mi_malloc_small(i64 noundef 48) #9
  %7 = icmp eq ptr %6, null
  br i1 %7, label %8, label %lean_alloc_closure.exit

8:                                                ; preds = %5
  tail call void @lean_internal_panic_out_of_memory() #10
  unreachable

lean_alloc_closure.exit:                          ; preds = %5
  %9 = getelementptr inbounds nuw i8, ptr %6, i64 4
  store i32 1, ptr %6, align 4, !tbaa !4
  store i32 -184549328, ptr %9, align 4
  %10 = getelementptr inbounds nuw i8, ptr %6, i64 8
  store ptr @l_Lake_ELog_orElse___rarg___lambda__2, ptr %10, align 8, !tbaa !10
  %11 = getelementptr inbounds nuw i8, ptr %6, i64 16
  store i16 4, ptr %11, align 8, !tbaa !12
  %12 = getelementptr inbounds nuw i8, ptr %6, i64 18
  store i16 3, ptr %12, align 2, !tbaa !12
  %13 = getelementptr inbounds nuw i8, ptr %6, i64 24
  store ptr %0, ptr %13, align 8, !tbaa !10
  %14 = getelementptr inbounds nuw i8, ptr %6, i64 32
  store ptr %1, ptr %14, align 8, !tbaa !10
  %15 = getelementptr inbounds nuw i8, ptr %6, i64 40
  store ptr %4, ptr %15, align 8, !tbaa !10
  %16 = getelementptr inbounds nuw i8, ptr %2, i64 16
  %17 = load ptr, ptr %16, align 8, !tbaa !10
  %18 = ptrtoint ptr %17 to i64
  %19 = and i64 %18, 1
  %.not = icmp eq i64 %19, 0
  br i1 %.not, label %20, label %lean_inc.exit

20:                                               ; preds = %lean_alloc_closure.exit
  %.val.i = load i32, ptr %17, align 4, !tbaa !4
  %21 = icmp sgt i32 %.val.i, 0
  br i1 %21, label %22, label %24, !prof !9

22:                                               ; preds = %20
  %23 = add nuw i32 %.val.i, 1
  store i32 %23, ptr %17, align 4, !tbaa !4
  br label %lean_inc.exit

24:                                               ; preds = %20
  %.not.i13 = icmp eq i32 %.val.i, 0
  br i1 %.not.i13, label %lean_inc.exit, label %25

25:                                               ; preds = %24
  tail call void @lean_inc_ref_cold(ptr noundef nonnull %17) #9
  br label %lean_inc.exit

lean_inc.exit:                                    ; preds = %25, %24, %22, %lean_alloc_closure.exit
  %26 = ptrtoint ptr %2 to i64
  %27 = and i64 %26, 1
  %.not14 = icmp eq i64 %27, 0
  br i1 %.not14, label %28, label %lean_dec.exit

28:                                               ; preds = %lean_inc.exit
  %29 = load i32, ptr %2, align 4, !tbaa !4
  %30 = icmp sgt i32 %29, 1
  br i1 %30, label %31, label %33, !prof !9

31:                                               ; preds = %28
  %32 = add nsw i32 %29, -1
  store i32 %32, ptr %2, align 4, !tbaa !4
  br label %lean_dec.exit

33:                                               ; preds = %28
  %.not.i = icmp eq i32 %29, 0
  br i1 %.not.i, label %lean_dec.exit, label %34

34:                                               ; preds = %33
  tail call void @lean_dec_ref_cold(ptr noundef nonnull %2) #9
  br label %lean_dec.exit

lean_dec.exit:                                    ; preds = %34, %33, %31, %lean_inc.exit
  %35 = tail call ptr @lean_apply_3(ptr noundef %17, ptr noundef nonnull inttoptr (i64 1 to ptr), ptr noundef %3, ptr noundef nonnull %6) #9
  ret ptr %35
}